target datalayout = "e-m:e-p270:32:32-p271:32:32-p272:64:64-i64:64-i128:128-f80:128-n8:16:32:64-S128"
target triple = "x86_64-pc-linux-gnu"

@testctx = internal global ptr null, align 8
@testpropq = internal global ptr null, align 8
@.str.317 = private unnamed_addr constant [5 x i8] c"pkey\00", align 1
@.str.318 = private unnamed_addr constant [26 x i8] c"EVP_PKEY_is_a(pkey, type)\00", align 1

; Function Attrs: nounwind uwtable
define internal i32 @check_public_DER(ptr noundef %0, i32 noundef %1, ptr noundef %2, ptr noundef %3, i64 noundef %4) #0 {
  %6 = alloca ptr, align 8
  %7 = alloca i32, align 4
  %8 = alloca ptr, align 8
  %9 = alloca ptr, align 8
  %10 = alloca i64, align 8
  %11 = alloca ptr, align 8
  %12 = alloca ptr, align 8
  %13 = alloca i32, align 4
  store ptr %0, ptr %6, align 8, !tbaa !4
  store i32 %1, ptr %7, align 4, !tbaa !9
  store ptr %2, ptr %8, align 8, !tbaa !4
  store ptr %3, ptr %9, align 8, !tbaa !31
  store i64 %4, ptr %10, align 8, !tbaa !27
  call void @llvm.lifetime.start.p0(i64 8, ptr %11) #7
  %14 = load ptr, ptr %9, align 8, !tbaa !31
  store ptr %14, ptr %11, align 8, !tbaa !4
  call void @llvm.lifetime.start.p0(i64 8, ptr %12) #7
  %15 = load i64, ptr %10, align 8, !tbaa !27
  %16 = load ptr, ptr @testctx, align 8, !tbaa !13
  %17 = load ptr, ptr @testpropq, align 8, !tbaa !4
  %18 = call ptr @d2i_PUBKEY_ex(ptr noundef null, ptr noundef %11, i64 noundef %15, ptr noundef %16, ptr noundef %17)
  store ptr %18, ptr %12, align 8, !tbaa !23
  call void @llvm.lifetime.start.p0(i64 4, ptr %13) #7
  %19 = load ptr, ptr %6, align 8, !tbaa !4
  %20 = load i32, ptr %7, align 4, !tbaa !9
  %21 = load ptr, ptr %12, align 8, !tbaa !23
  %22 = call i32 @test_ptr(ptr noundef %19, i32 noundef %20, ptr noundef @.str.317, ptr noundef %21)
  %23 = icmp ne i32 %22, 0
  br i1 %23, label %24, label %34

24:                                               ; preds = %5
  %25 = load ptr, ptr %6, align 8, !tbaa !4
  %26 = load i32, ptr %7, align 4, !tbaa !9
  %27 = load ptr, ptr %12, align 8, !tbaa !23
  %28 = load ptr, ptr %8, align 8, !tbaa !4
  %29 = call i32 @EVP_PKEY_is_a(ptr noundef %27, ptr noundef %28)
  %30 = icmp ne i32 %29, 0
  %31 = zext i1 %30 to i32
  %32 = call i32 @test_true(ptr noundef %25, i32 noundef %26, ptr noundef @.str.318, i32 noundef %31)
  %33 = icmp ne i32 %32, 0
  br label %34

34:                                               ; preds = %24, %5
  %35 = phi i1 [ false, %5 ], [ %33, %24 ]
  %36 = zext i1 %35 to i32
  store i32 %36, ptr %13, align 4, !tbaa !9
  %37 = load ptr, ptr %12, align 8, !tbaa !23
  call void @EVP_PKEY_free(ptr noundef %37)
  %38 = load i32, ptr %13, align 4, !tbaa !9
  call void @llvm.lifetime.end.p0(i64 4, ptr %13) #7
  call void @llvm.lifetime.end.p0(i64 8, ptr %12) #7
  call void @llvm.lifetime.end.p0(i64 8, ptr %11) #7
  ret i32 %38
}