; Function Attrs: nounwind uwtable
define internal range(i32 0, 2) i32 @check_public_DER(ptr noundef %0, i32 noundef %1, ptr noundef %2, ptr noundef %3, i64 noundef %4) #1 {
  %6 = alloca ptr, align 8
  call void @llvm.lifetime.start.p0(i64 8, ptr nonnull %6) #8
  store ptr %3, ptr %6, align 8, !tbaa !36
  %7 = load ptr, ptr @testctx, align 8, !tbaa !10
  %8 = call ptr @d2i_PUBKEY_ex(ptr noundef null, ptr noundef nonnull %6, i64 noundef %4, ptr noundef %7, ptr noundef null) #8
  %9 = call i32 @test_ptr(ptr noundef %0, i32 noundef %1, ptr noundef nonnull @.str.317, ptr noundef %8) #8
  %.not = icmp eq i32 %9, 0
  br i1 %.not, label %17, label %10

10:                                               ; preds = %5
  %11 = call i32 @EVP_PKEY_is_a(ptr noundef %8, ptr noundef %2) #8
  %12 = icmp ne i32 %11, 0
  %13 = zext i1 %12 to i32
  %14 = call i32 @test_true(ptr noundef %0, i32 noundef %1, ptr noundef nonnull @.str.318, i32 noundef %13) #8
  %15 = icmp ne i32 %14, 0
  %16 = zext i1 %15 to i32
  br label %17

17:                                               ; preds = %10, %5
  %18 = phi i32 [ 0, %5 ], [ %16, %10 ]
  call void @EVP_PKEY_free(ptr noundef %8) #8
  call void @llvm.lifetime.end.p0(i64 8, ptr nonnull %6) #8
  ret i32 %18
}